; ModuleID = '20/446.c'
source_filename = "20/446.c"
target datalayout = "e-m:e-p270:32:32-p271:32:32-p272:64:64-i64:64-f80:128-n8:16:32:64-S128"
target triple = "x86_64-pc-linux-gnu"

@.str = private unnamed_addr constant [5 x i8] c"%s%s\00", align 1
@.str.1 = private unnamed_addr constant [4 x i8] c"%s\0A\00", align 1

; Function Attrs: noinline nounwind uwtable
define dso_local void @main() #0 {
  %1 = alloca [14 x i8], align 1
  %2 = alloca [4 x i8], align 1
  %3 = alloca i32, align 4
  %4 = alloca i32, align 4
  %5 = alloca i32, align 4
  %6 = alloca i32, align 4
  br label %7

7:                                                ; preds = %107, %0
  %8 = getelementptr inbounds [14 x i8], [14 x i8]* %1, i64 0, i64 0
  %9 = getelementptr inbounds [4 x i8], [4 x i8]* %2, i64 0, i64 0
  %10 = call i32 (i8*, ...) @__isoc99_scanf(i8* getelementptr inbounds ([5 x i8], [5 x i8]* @.str, i64 0, i64 0), i8* %8, i8* %9)
  %11 = icmp ne i32 %10, -1
  br i1 %11, label %12, label %110

12:                                               ; preds = %7
  store i32 0, i32* %4, align 4
  store i32 0, i32* %5, align 4
  %13 = getelementptr inbounds [14 x i8], [14 x i8]* %1, i64 0, i64 0
  %14 = call i64 @strlen(i8* %13) #3
  %15 = trunc i64 %14 to i32
  store i32 %15, i32* %6, align 4
  store i32 0, i32* %3, align 4
  br label %16

16:                                               ; preds = %36, %12
  %17 = load i32, i32* %3, align 4
  %18 = load i32, i32* %6, align 4
  %19 = icmp slt i32 %17, %18
  br i1 %19, label %20, label %39

20:                                               ; preds = %16
  %21 = load i32, i32* %3, align 4
  %22 = sext i32 %21 to i64
  %23 = getelementptr inbounds [14 x i8], [14 x i8]* %1, i64 0, i64 %22
  %24 = load i8, i8* %23, align 1
  %25 = sext i8 %24 to i32
  %26 = load i32, i32* %5, align 4
  %27 = icmp sgt i32 %25, %26
  br i1 %27, label %28, label %35

28:                                               ; preds = %20
  %29 = load i32, i32* %3, align 4
  %30 = sext i32 %29 to i64
  %31 = getelementptr inbounds [14 x i8], [14 x i8]* %1, i64 0, i64 %30
  %32 = load i8, i8* %31, align 1
  %33 = sext i8 %32 to i32
  store i32 %33, i32* %5, align 4
  %34 = load i32, i32* %3, align 4
  store i32 %34, i32* %4, align 4
  br label %35

35:                                               ; preds = %28, %20
  br label %36

36:                                               ; preds = %35
  %37 = load i32, i32* %3, align 4
  %38 = add nsw i32 %37, 1
  store i32 %38, i32* %3, align 4
  br label %16

39:                                               ; preds = %16
  store i32 0, i32* %3, align 4
  br label %40

40:                                               ; preds = %63, %39
  %41 = load i32, i32* %3, align 4
  %42 = load i32, i32* %6, align 4
  %43 = icmp slt i32 %41, %42
  br i1 %43, label %44, label %66

44:                                               ; preds = %40
  %45 = load i32, i32* %3, align 4
  %46 = sext i32 %45 to i64
  %47 = getelementptr inbounds [14 x i8], [14 x i8]* %1, i64 0, i64 %46
  %48 = load i8, i8* %47, align 1
  %49 = sext i8 %48 to i32
  %50 = load i32, i32* %4, align 4
  %51 = sext i32 %50 to i64
  %52 = getelementptr inbounds [14 x i8], [14 x i8]* %1, i64 0, i64 %51
  %53 = load i8, i8* %52, align 1
  %54 = sext i8 %53 to i32
  %55 = icmp eq i32 %49, %54
  br i1 %55, label %56, label %62

56:                                               ; preds = %44
  %57 = load i32, i32* %3, align 4
  %58 = load i32, i32* %4, align 4
  %59 = icmp slt i32 %57, %58
  br i1 %59, label %60, label %62

60:                                               ; preds = %56
  %61 = load i32, i32* %3, align 4
  store i32 %61, i32* %4, align 4
  br label %66

62:                                               ; preds = %56, %44
  br label %63

63:                                               ; preds = %62
  %64 = load i32, i32* %3, align 4
  %65 = add nsw i32 %64, 1
  store i32 %65, i32* %3, align 4
  br label %40

66:                                               ; preds = %60, %40
  %67 = load i32, i32* %6, align 4
  store i32 %67, i32* %3, align 4
  br label %68

68:                                               ; preds = %82, %66
  %69 = load i32, i32* %3, align 4
  %70 = load i32, i32* %4, align 4
  %71 = add nsw i32 %70, 1
  %72 = icmp sge i32 %69, %71
  br i1 %72, label %73, label %85

73:                                               ; preds = %68
  %74 = load i32, i32* %3, align 4
  %75 = sext i32 %74 to i64
  %76 = getelementptr inbounds [14 x i8], [14 x i8]* %1, i64 0, i64 %75
  %77 = load i8, i8* %76, align 1
  %78 = load i32, i32* %3, align 4
  %79 = add nsw i32 %78, 3
  %80 = sext i32 %79 to i64
  %81 = getelementptr inbounds [14 x i8], [14 x i8]* %1, i64 0, i64 %80
  store i8 %77, i8* %81, align 1
  br label %82

82:                                               ; preds = %73
  %83 = load i32, i32* %3, align 4
  %84 = add nsw i32 %83, -1
  store i32 %84, i32* %3, align 4
  br label %68

85:                                               ; preds = %68
  %86 = load i32, i32* %4, align 4
  %87 = add nsw i32 %86, 1
  store i32 %87, i32* %3, align 4
  br label %88

88:                                               ; preds = %104, %85
  %89 = load i32, i32* %3, align 4
  %90 = load i32, i32* %4, align 4
  %91 = add nsw i32 %90, 4
  %92 = icmp slt i32 %89, %91
  br i1 %92, label %93, label %107

93:                                               ; preds = %88
  %94 = load i32, i32* %3, align 4
  %95 = sub nsw i32 %94, 1
  %96 = load i32, i32* %4, align 4
  %97 = sub nsw i32 %95, %96
  %98 = sext i32 %97 to i64
  %99 = getelementptr inbounds [4 x i8], [4 x i8]* %2, i64 0, i64 %98
  %100 = load i8, i8* %99, align 1
  %101 = load i32, i32* %3, align 4
  %102 = sext i32 %101 to i64
  %103 = getelementptr inbounds [14 x i8], [14 x i8]* %1, i64 0, i64 %102
  store i8 %100, i8* %103, align 1
  br label %104

104:                                              ; preds = %93
  %105 = load i32, i32* %3, align 4
  %106 = add nsw i32 %105, 1
  store i32 %106, i32* %3, align 4
  br label %88

107:                                              ; preds = %88
  %108 = getelementptr inbounds [14 x i8], [14 x i8]* %1, i64 0, i64 0
  %109 = call i32 (i8*, ...) @printf(i8* getelementptr inbounds ([4 x i8], [4 x i8]* @.str.1, i64 0, i64 0), i8* %108)
  br label %7

110:                                              ; preds = %7
  ret void
}

declare dso_local i32 @__isoc99_scanf(i8*, ...) #1

; Function Attrs: nounwind readonly
declare dso_local i64 @strlen(i8*) #2

declare dso_local i32 @printf(i8*, ...) #1


!llvm.module.flags = !{!0}
!llvm.ident = !{!1}

!0 = !{i32 1, !"wchar_size", i32 4}
!1 = !{!"clang version 10.0.0-4ubuntu1 "}
